; Function Attrs: nounwind uwtable
define dso_local { ptr, ptr } @gen_dictpair(ptr %0, ptr %1, ptr %2, ptr %3) local_unnamed_addr #1 {
  %5 = tail call { ptr, ptr } @gen_subexp(ptr %0, ptr %1)
  %6 = extractvalue { ptr, ptr } %5, 0
  %7 = extractvalue { ptr, ptr } %5, 1
  %8 = tail call { ptr, ptr } @gen_subexp(ptr %2, ptr %3)
  %9 = extractvalue { ptr, ptr } %8, 0
  %10 = extractvalue { ptr, ptr } %8, 1
  %.not.i.i = icmp eq ptr %9, null
  br i1 %.not.i.i, label %14, label %11

11:                                               ; preds = %4
  %.not7.i.i = icmp eq ptr %7, null
  br i1 %.not7.i.i, label %14, label %12

12:                                               ; preds = %11
  store ptr %9, ptr %7, align 8, !tbaa !22
  %13 = getelementptr inbounds nuw i8, ptr %9, i64 8
  store ptr %7, ptr %13, align 8, !tbaa !34
  br label %14

14:                                               ; preds = %12, %11, %4
  %.sroa.3.0.i = phi ptr [ %7, %4 ], [ %10, %11 ], [ %10, %12 ]
  %.sroa.0.1.i = phi ptr [ %6, %4 ], [ %9, %11 ], [ %6, %12 ]
  %15 = tail call ptr @jv_mem_alloc(i64 noundef 160) #17
  %16 = getelementptr inbounds nuw i8, ptr %15, i64 16
  tail call void @llvm.memset.p0.i64(ptr noundef nonnull align 8 dereferenceable(16) %15, i8 0, i64 16, i1 false)
  store i32 21, ptr %16, align 8, !tbaa !25
  %17 = getelementptr inbounds nuw i8, ptr %15, i64 152
  store i32 -1, ptr %17, align 8, !tbaa !26
  %18 = getelementptr inbounds nuw i8, ptr %15, i64 80
  %19 = getelementptr inbounds nuw i8, ptr %15, i64 104
  tail call void @llvm.memset.p0.i64(ptr noundef nonnull align 8 dereferenceable(24) %18, i8 0, i64 24, i1 false)
  store i32 -1, ptr %19, align 8, !tbaa !27
  %20 = getelementptr inbounds nuw i8, ptr %15, i64 108
  store i32 -1, ptr %20, align 4, !tbaa !28
  %21 = getelementptr inbounds nuw i8, ptr %15, i64 112
  %22 = getelementptr inbounds nuw i8, ptr %15, i64 72
  tail call void @llvm.memset.p0.i64(ptr noundef nonnull align 8 dereferenceable(32) %21, i8 0, i64 32, i1 false)
  store i64 -1, ptr %22, align 8
  %23 = getelementptr inbounds nuw i8, ptr %15, i64 64
  store ptr null, ptr %23, align 8, !tbaa !21
  %.not7.i.i14 = icmp eq ptr %.sroa.3.0.i, null
  br i1 %.not7.i.i14, label %block_join.exit19, label %24

24:                                               ; preds = %14
  store ptr %15, ptr %.sroa.3.0.i, align 8, !tbaa !22
  %25 = getelementptr inbounds nuw i8, ptr %15, i64 8
  store ptr %.sroa.3.0.i, ptr %25, align 8, !tbaa !34
  br label %block_join.exit19

block_join.exit19:                                ; preds = %14, %24
  %.sroa.0.1.i16 = phi ptr [ %15, %14 ], [ %.sroa.0.1.i, %24 ]
  %.fca.0.insert.i17 = insertvalue { ptr, ptr } poison, ptr %.sroa.0.1.i16, 0
  %.fca.1.insert.i18 = insertvalue { ptr, ptr } %.fca.0.insert.i17, ptr %15, 1
  ret { ptr, ptr } %.fca.1.insert.i18
}